target datalayout = "e-m:e-p270:32:32-p271:32:32-p272:64:64-i64:64-i128:128-f80:128-n8:16:32:64-S128"
target triple = "x86_64-pc-linux-gnu"

%struct.expert_field = type { i32, i32 }
%struct.MessageHeader = type { [4 x i8], %struct.Version, i8, i8, i32, i32, i32, ptr }
%struct.Version = type { i8, i8 }

@hf_Tango_Device_4_command_inout_4_command = internal global i32 0, align 4
@hf_Tango_Device_4_command_inout_4_source = internal global i32 0, align 4
@ei_tango_unknown_giop_msg = internal global %struct.expert_field zeroinitializer, align 4
@ei_tango_unknown_exception = internal global %struct.expert_field zeroinitializer, align 4
@ett_giop_union = internal global i32 0, align 4
@boundary = internal global i32 12, align 4
@.str.770 = private unnamed_addr constant [22 x i8] c"union Tango_ClntIdent\00", align 1
@.str.771 = private unnamed_addr constant [21 x i8] c"Unknown exception %d\00", align 1
@.str.772 = private unnamed_addr constant [24 x i8] c"Unknown GIOP message %d\00", align 1

; Function Attrs: null_pointer_is_valid sspstrong uwtable
define internal void @decode_Tango_Device_4_command_inout_4(ptr noundef %0, ptr noundef %1, ptr noundef %2, ptr noundef %3, ptr noundef %4, ptr noundef %5, ptr noundef %6, i1 noundef zeroext %7) #0 {
  %9 = alloca ptr, align 8
  %10 = alloca ptr, align 8
  %11 = alloca ptr, align 8
  %12 = alloca ptr, align 8
  %13 = alloca ptr, align 8
  %14 = alloca ptr, align 8
  %15 = alloca ptr, align 8
  %16 = alloca i8, align 1
  %17 = alloca i32, align 4
  %18 = alloca ptr, align 8
  store ptr %0, ptr %9, align 8
  store ptr %1, ptr %10, align 8
  store ptr %2, ptr %11, align 8
  store ptr %3, ptr %12, align 8
  store ptr %4, ptr %13, align 8
  store ptr %5, ptr %14, align 8
  store ptr %6, ptr %15, align 8
  %19 = zext i1 %7 to i8
  store i8 %19, ptr %16, align 1
  call void @llvm.lifetime.start.p0(i64 4, ptr %17) #6
  %20 = load ptr, ptr %14, align 8
  %21 = getelementptr inbounds nuw %struct.MessageHeader, ptr %20, i32 0, i32 3
  %22 = load i8, ptr %21, align 1
  %23 = zext i8 %22 to i32
  switch i32 %23, label %91 [
    i32 0, label %24
    i32 1, label %69
  ]

24:                                               ; preds = %8
  %25 = load ptr, ptr %11, align 8
  %26 = load ptr, ptr %9, align 8
  %27 = load ptr, ptr %13, align 8
  %28 = load i8, ptr %16, align 1, !range !6, !noundef !7
  %29 = trunc i8 %28 to i1
  %30 = load i32, ptr @boundary, align 4
  %31 = load i32, ptr @hf_Tango_Device_4_command_inout_4_command, align 4
  call void @giop_add_CDR_string(ptr noundef %25, ptr noundef %26, ptr noundef %27, i1 noundef zeroext %29, i32 noundef %30, i32 noundef %31)
  %32 = load ptr, ptr %9, align 8
  %33 = load ptr, ptr %10, align 8
  %34 = load ptr, ptr %11, align 8
  %35 = load ptr, ptr %12, align 8
  %36 = load ptr, ptr %13, align 8
  %37 = load i8, ptr %16, align 1, !range !6, !noundef !7
  %38 = trunc i8 %37 to i1
  %39 = load i32, ptr @boundary, align 4
  %40 = load ptr, ptr %14, align 8
  call void @get_CDR_any(ptr noundef %32, ptr noundef %33, ptr noundef %34, ptr noundef %35, ptr noundef %36, i1 noundef zeroext %38, i32 noundef %39, ptr noundef %40)
  %41 = load ptr, ptr %9, align 8
  %42 = load ptr, ptr %13, align 8
  %43 = load i8, ptr %16, align 1, !range !6, !noundef !7
  %44 = trunc i8 %43 to i1
  %45 = load i32, ptr @boundary, align 4
  %46 = call i32 @get_CDR_enum(ptr noundef %41, ptr noundef %42, i1 noundef zeroext %44, i32 noundef %45)
  store i32 %46, ptr %17, align 4
  %47 = load ptr, ptr %11, align 8
  %48 = load i32, ptr @hf_Tango_Device_4_command_inout_4_source, align 4
  %49 = load ptr, ptr %9, align 8
  %50 = load ptr, ptr %13, align 8
  %51 = load i32, ptr %50, align 4
  %52 = sub i32 %51, 4
  %53 = load i32, ptr %17, align 4
  %54 = call ptr @proto_tree_add_uint(ptr noundef %47, i32 noundef %48, ptr noundef %49, i32 noundef %52, i32 noundef 4, i32 noundef %53)
  call void @llvm.lifetime.start.p0(i64 8, ptr %18) #6
  %55 = load ptr, ptr %11, align 8
  %56 = load ptr, ptr %9, align 8
  %57 = load ptr, ptr %13, align 8
  %58 = load i32, ptr %57, align 4
  %59 = load i32, ptr @ett_giop_union, align 4
  %60 = call ptr @proto_tree_add_subtree(ptr noundef %55, ptr noundef %56, i32 noundef %58, i32 noundef -1, i32 noundef %59, ptr noundef null, ptr noundef @.str.770)
  store ptr %60, ptr %18, align 8
  %61 = load ptr, ptr %9, align 8
  %62 = load ptr, ptr %10, align 8
  %63 = load ptr, ptr %18, align 8
  %64 = load ptr, ptr %13, align 8
  %65 = load ptr, ptr %14, align 8
  %66 = load ptr, ptr %15, align 8
  %67 = load i8, ptr %16, align 1, !range !6, !noundef !7
  %68 = trunc i8 %67 to i1
  call void @decode_Tango_ClntIdent_un(ptr noundef %61, ptr noundef %62, ptr noundef %63, ptr noundef %64, ptr noundef %65, ptr noundef %66, i1 noundef zeroext %68)
  call void @llvm.lifetime.end.p0(i64 8, ptr %18) #6
  br label %99

69:                                               ; preds = %8
  %70 = load ptr, ptr %14, align 8
  %71 = getelementptr inbounds nuw %struct.MessageHeader, ptr %70, i32 0, i32 6
  %72 = load i32, ptr %71, align 8
  switch i32 %72, label %83 [
    i32 0, label %73
    i32 1, label %90
  ]

73:                                               ; preds = %69
  %74 = load ptr, ptr %9, align 8
  %75 = load ptr, ptr %10, align 8
  %76 = load ptr, ptr %11, align 8
  %77 = load ptr, ptr %12, align 8
  %78 = load ptr, ptr %13, align 8
  %79 = load i8, ptr %16, align 1, !range !6, !noundef !7
  %80 = trunc i8 %79 to i1
  %81 = load i32, ptr @boundary, align 4
  %82 = load ptr, ptr %14, align 8
  call void @get_CDR_any(ptr noundef %74, ptr noundef %75, ptr noundef %76, ptr noundef %77, ptr noundef %78, i1 noundef zeroext %80, i32 noundef %81, ptr noundef %82)
  br label %90

83:                                               ; preds = %69
  %84 = load ptr, ptr %10, align 8
  %85 = load ptr, ptr %12, align 8
  %86 = load ptr, ptr %14, align 8
  %87 = getelementptr inbounds nuw %struct.MessageHeader, ptr %86, i32 0, i32 6
  %88 = load i32, ptr %87, align 8
  %89 = call ptr (ptr, ptr, ptr, ptr, ...) @expert_add_info_format(ptr noundef %84, ptr noundef %85, ptr noundef @ei_tango_unknown_exception, ptr noundef @.str.771, i32 noundef %88)
  br label %90

90:                                               ; preds = %83, %69, %73
  br label %99

91:                                               ; preds = %8
  %92 = load ptr, ptr %10, align 8
  %93 = load ptr, ptr %12, align 8
  %94 = load ptr, ptr %14, align 8
  %95 = getelementptr inbounds nuw %struct.MessageHeader, ptr %94, i32 0, i32 3
  %96 = load i8, ptr %95, align 1
  %97 = zext i8 %96 to i32
  %98 = call ptr (ptr, ptr, ptr, ptr, ...) @expert_add_info_format(ptr noundef %92, ptr noundef %93, ptr noundef @ei_tango_unknown_giop_msg, ptr noundef @.str.772, i32 noundef %97)
  br label %99

99:                                               ; preds = %91, %90, %24
  call void @llvm.lifetime.end.p0(i64 4, ptr %17) #6
  ret void
}